target datalayout = "e-m:e-p270:32:32-p271:32:32-p272:64:64-i64:64-i128:128-f80:128-n8:16:32:64-S128"
target triple = "x86_64-pc-linux-gnu"

@local_test_path = internal global ptr null, align 8
@.str = private unnamed_addr constant [39 x i8] c"../qemu/tests/qtest/libqos/virtio-9p.c\00", align 1
@.str.4 = private unnamed_addr constant [24 x i8] c"local_test_path != NULL\00", align 1
@__func__.virtio_9p_remove_local_test_dir = private unnamed_addr constant [32 x i8] c"virtio_9p_remove_local_test_dir\00", align 1
@.str.7 = private unnamed_addr constant [13 x i8] c"rm -fr '%s'\0A\00", align 1

; Function Attrs: inlinehint nounwind sspstrong uwtable
define internal void @g_autoptr_cleanup_generic_gfree(ptr noundef %0) #6 {
  %2 = alloca ptr, align 8
  %3 = alloca ptr, align 8
  store ptr %0, ptr %2, align 8
  call void @llvm.lifetime.start.p0(i64 8, ptr %3) #14
  %4 = load ptr, ptr %2, align 8
  store ptr %4, ptr %3, align 8
  %5 = load ptr, ptr %3, align 8
  %6 = load ptr, ptr %5, align 8
  call void @g_free(ptr noundef %6)
  call void @llvm.lifetime.end.p0(i64 8, ptr %3) #14
  ret void
}

; Function Attrs: nounwind sspstrong uwtable
define dso_local void @virtio_9p_remove_local_test_dir() #0 {
  %1 = alloca i32, align 4
  %2 = alloca i32, align 4
  %3 = alloca ptr, align 8
  %4 = alloca i32, align 4
  br label %5

5:                                                ; preds = %0
  call void @llvm.lifetime.start.p0(i64 4, ptr %1) #14
  store i32 0, ptr %1, align 4, !annotation !4
  %6 = load ptr, ptr @local_test_path, align 8
  %7 = icmp ne ptr %6, null
  br i1 %7, label %8, label %9

8:                                                ; preds = %5
  store i32 1, ptr %1, align 4
  br label %10

9:                                                ; preds = %5
  store i32 0, ptr %1, align 4
  br label %10

10:                                               ; preds = %9, %8
  %11 = load i32, ptr %1, align 4
  store i32 %11, ptr %2, align 4
  call void @llvm.lifetime.end.p0(i64 4, ptr %1) #14
  %12 = load i32, ptr %2, align 4
  %13 = sext i32 %12 to i64
  %14 = call i64 @llvm.expect.i64(i64 %13, i64 1)
  %15 = icmp ne i64 %14, 0
  br i1 %15, label %16, label %17

16:                                               ; preds = %10
  br label %18

17:                                               ; preds = %10
  call void @g_assertion_message_expr(ptr noundef null, ptr noundef @.str, i32 noundef 66, ptr noundef @__func__.virtio_9p_remove_local_test_dir, ptr noundef @.str.4) #15
  unreachable

18:                                               ; preds = %16
  br label %19

19:                                               ; preds = %18
  call void @llvm.lifetime.start.p0(i64 8, ptr %3) #14
  %20 = load ptr, ptr @local_test_path, align 8
  %21 = call noalias ptr (ptr, ...) @g_strdup_printf(ptr noundef @.str.7, ptr noundef %20)
  store ptr %21, ptr %3, align 8
  call void @llvm.lifetime.start.p0(i64 4, ptr %4) #14
  %22 = load ptr, ptr %3, align 8
  %23 = call i32 @system(ptr noundef %22)
  store i32 %23, ptr %4, align 4
  %24 = load i32, ptr %4, align 4
  %25 = icmp slt i32 %24, 0
  br i1 %25, label %26, label %27

26:                                               ; preds = %19
  br label %27

27:                                               ; preds = %26, %19
  %28 = load ptr, ptr @local_test_path, align 8
  call void @g_free(ptr noundef %28)
  store ptr null, ptr @local_test_path, align 8
  call void @llvm.lifetime.end.p0(i64 4, ptr %4) #14
  call void @g_autoptr_cleanup_generic_gfree(ptr noundef %3)
  call void @llvm.lifetime.end.p0(i64 8, ptr %3) #14
  ret void
}