; Function Attrs: nounwind sspstrong uwtable
define dso_local void @virtio_9p_remove_local_test_dir() local_unnamed_addr #0 {
  %1 = load ptr, ptr @local_test_path, align 8
  %.not = icmp eq ptr %1, null
  br i1 %.not, label %2, label %3, !prof !7

2:                                                ; preds = %0
  tail call void @g_assertion_message_expr(ptr noundef null, ptr noundef nonnull @.str, i32 noundef 66, ptr noundef nonnull @__func__.virtio_9p_remove_local_test_dir, ptr noundef nonnull @.str.4) #12
  unreachable

3:                                                ; preds = %0
  %4 = tail call noalias ptr (ptr, ...) @g_strdup_printf(ptr noundef nonnull @.str.7, ptr noundef nonnull %1) #13
  %5 = tail call i32 @system(ptr noundef %4) #13
  %6 = load ptr, ptr @local_test_path, align 8
  tail call void @g_free(ptr noundef %6) #13
  store ptr null, ptr @local_test_path, align 8
  tail call void @g_free(ptr noundef %4) #13
  ret void
}